; Function Attrs: nounwind uwtable
define ptr @lv_strdup(ptr noundef %0) local_unnamed_addr #3 {
  br label %2

2:                                                ; preds = %2, %1
  %.0.i = phi i64 [ 0, %1 ], [ %5, %2 ]
  %3 = getelementptr inbounds nuw i8, ptr %0, i64 %.0.i
  %4 = load i8, ptr %3, align 1, !tbaa !3
  %.not.i = icmp eq i8 %4, 0
  %5 = add i64 %.0.i, 1
  br i1 %.not.i, label %lv_strlen.exit, label %2, !llvm.loop !19

lv_strlen.exit:                                   ; preds = %2
  %6 = tail call ptr @lv_malloc(i64 noundef %5) #7
  %7 = icmp eq ptr %6, null
  br i1 %7, label %10, label %8

8:                                                ; preds = %lv_strlen.exit
  %9 = tail call ptr @lv_memcpy(ptr noundef nonnull %6, ptr noundef nonnull %0, i64 noundef %5)
  br label %10

10:                                               ; preds = %lv_strlen.exit, %8
  ret ptr %6
}